target datalayout = "e-m:e-p270:32:32-p271:32:32-p272:64:64-i64:64-i128:128-f80:128-n8:16:32:64-S128"
target triple = "x86_64-pc-linux-gnu"

%struct.LineNumberProgramHeader = type { i64, i16, i8, i64, i8, i8, i8, i8, i8, i8, ptr, ptr, ptr, ptr }

; Function Attrs: nounwind sspstrong uwtable
define internal i32 @parse_debug_line_header(ptr noundef %0, ptr noundef %1, ptr noundef %2, ptr noundef %3) #0 {
  %5 = alloca i32, align 4
  %6 = alloca ptr, align 8
  %7 = alloca ptr, align 8
  %8 = alloca ptr, align 8
  %9 = alloca ptr, align 8
  %10 = alloca ptr, align 8
  %11 = alloca i32, align 4
  store ptr %0, ptr %6, align 8, !tbaa !17
  store ptr %1, ptr %7, align 8, !tbaa !91
  store ptr %2, ptr %8, align 8, !tbaa !147
  store ptr %3, ptr %9, align 8, !tbaa !13
  call void @llvm.lifetime.start.p0(i64 8, ptr %10) #12
  %12 = load ptr, ptr %7, align 8, !tbaa !91
  %13 = load ptr, ptr %12, align 8, !tbaa !19
  store ptr %13, ptr %10, align 8, !tbaa !19
  %14 = load ptr, ptr %10, align 8, !tbaa !19
  %15 = load i32, ptr %14, align 4, !tbaa !7
  %16 = zext i32 %15 to i64
  %17 = load ptr, ptr %8, align 8, !tbaa !147
  %18 = getelementptr inbounds nuw %struct.LineNumberProgramHeader, ptr %17, i32 0, i32 0
  store i64 %16, ptr %18, align 8, !tbaa !149
  %19 = load ptr, ptr %10, align 8, !tbaa !19
  %20 = getelementptr i8, ptr %19, i64 4
  store ptr %20, ptr %10, align 8, !tbaa !19
  %21 = load ptr, ptr %8, align 8, !tbaa !147
  %22 = getelementptr inbounds nuw %struct.LineNumberProgramHeader, ptr %21, i32 0, i32 2
  store i8 4, ptr %22, align 2, !tbaa !132
  %23 = load ptr, ptr %8, align 8, !tbaa !147
  %24 = getelementptr inbounds nuw %struct.LineNumberProgramHeader, ptr %23, i32 0, i32 0
  %25 = load i64, ptr %24, align 8, !tbaa !149
  %26 = icmp eq i64 %25, 4294967295
  br i1 %26, label %27, label %36

27:                                               ; preds = %4
  %28 = load ptr, ptr %10, align 8, !tbaa !19
  %29 = load i64, ptr %28, align 8, !tbaa !21
  %30 = load ptr, ptr %8, align 8, !tbaa !147
  %31 = getelementptr inbounds nuw %struct.LineNumberProgramHeader, ptr %30, i32 0, i32 0
  store i64 %29, ptr %31, align 8, !tbaa !149
  %32 = load ptr, ptr %10, align 8, !tbaa !19
  %33 = getelementptr i8, ptr %32, i64 8
  store ptr %33, ptr %10, align 8, !tbaa !19
  %34 = load ptr, ptr %8, align 8, !tbaa !147
  %35 = getelementptr inbounds nuw %struct.LineNumberProgramHeader, ptr %34, i32 0, i32 2
  store i8 8, ptr %35, align 2, !tbaa !132
  br label %36

36:                                               ; preds = %27, %4
  %37 = load ptr, ptr %10, align 8, !tbaa !19
  %38 = load ptr, ptr %8, align 8, !tbaa !147
  %39 = getelementptr inbounds nuw %struct.LineNumberProgramHeader, ptr %38, i32 0, i32 0
  %40 = load i64, ptr %39, align 8, !tbaa !149
  %41 = getelementptr i8, ptr %37, i64 %40
  %42 = load ptr, ptr %8, align 8, !tbaa !147
  %43 = getelementptr inbounds nuw %struct.LineNumberProgramHeader, ptr %42, i32 0, i32 13
  store ptr %41, ptr %43, align 8, !tbaa !130
  %44 = load ptr, ptr %10, align 8, !tbaa !19
  %45 = load i16, ptr %44, align 2, !tbaa !107
  %46 = load ptr, ptr %8, align 8, !tbaa !147
  %47 = getelementptr inbounds nuw %struct.LineNumberProgramHeader, ptr %46, i32 0, i32 1
  store i16 %45, ptr %47, align 8, !tbaa !133
  %48 = load ptr, ptr %10, align 8, !tbaa !19
  %49 = getelementptr i8, ptr %48, i64 2
  store ptr %49, ptr %10, align 8, !tbaa !19
  %50 = load ptr, ptr %8, align 8, !tbaa !147
  %51 = getelementptr inbounds nuw %struct.LineNumberProgramHeader, ptr %50, i32 0, i32 1
  %52 = load i16, ptr %51, align 8, !tbaa !133
  %53 = zext i16 %52 to i32
  %54 = icmp sgt i32 %53, 5
  br i1 %54, label %55, label %56

55:                                               ; preds = %36
  store i32 -1, ptr %5, align 4
  store i32 1, ptr %11, align 4
  br label %205

56:                                               ; preds = %36
  %57 = load ptr, ptr %8, align 8, !tbaa !147
  %58 = getelementptr inbounds nuw %struct.LineNumberProgramHeader, ptr %57, i32 0, i32 1
  %59 = load i16, ptr %58, align 8, !tbaa !133
  %60 = zext i16 %59 to i32
  %61 = icmp sge i32 %60, 5
  br i1 %61, label %62, label %65

62:                                               ; preds = %56
  %63 = load ptr, ptr %10, align 8, !tbaa !19
  %64 = getelementptr i8, ptr %63, i64 2
  store ptr %64, ptr %10, align 8, !tbaa !19
  br label %65

65:                                               ; preds = %62, %56
  %66 = load ptr, ptr %8, align 8, !tbaa !147
  %67 = getelementptr inbounds nuw %struct.LineNumberProgramHeader, ptr %66, i32 0, i32 2
  %68 = load i8, ptr %67, align 2, !tbaa !132
  %69 = zext i8 %68 to i32
  %70 = icmp eq i32 %69, 4
  br i1 %70, label %71, label %75

71:                                               ; preds = %65
  %72 = load ptr, ptr %10, align 8, !tbaa !19
  %73 = load i32, ptr %72, align 4, !tbaa !7
  %74 = zext i32 %73 to i64
  br label %78

75:                                               ; preds = %65
  %76 = load ptr, ptr %10, align 8, !tbaa !19
  %77 = load i64, ptr %76, align 8, !tbaa !21
  br label %78

78:                                               ; preds = %75, %71
  %79 = phi i64 [ %74, %71 ], [ %77, %75 ]
  %80 = load ptr, ptr %8, align 8, !tbaa !147
  %81 = getelementptr inbounds nuw %struct.LineNumberProgramHeader, ptr %80, i32 0, i32 3
  store i64 %79, ptr %81, align 8, !tbaa !150
  %82 = load ptr, ptr %8, align 8, !tbaa !147
  %83 = getelementptr inbounds nuw %struct.LineNumberProgramHeader, ptr %82, i32 0, i32 2
  %84 = load i8, ptr %83, align 2, !tbaa !132
  %85 = zext i8 %84 to i32
  %86 = load ptr, ptr %10, align 8, !tbaa !19
  %87 = sext i32 %85 to i64
  %88 = getelementptr i8, ptr %86, i64 %87
  store ptr %88, ptr %10, align 8, !tbaa !19
  %89 = load ptr, ptr %10, align 8, !tbaa !19
  %90 = load ptr, ptr %8, align 8, !tbaa !147
  %91 = getelementptr inbounds nuw %struct.LineNumberProgramHeader, ptr %90, i32 0, i32 3
  %92 = load i64, ptr %91, align 8, !tbaa !150
  %93 = getelementptr i8, ptr %89, i64 %92
  %94 = load ptr, ptr %8, align 8, !tbaa !147
  %95 = getelementptr inbounds nuw %struct.LineNumberProgramHeader, ptr %94, i32 0, i32 12
  store ptr %93, ptr %95, align 8, !tbaa !151
  %96 = load ptr, ptr %10, align 8, !tbaa !19
  %97 = getelementptr i8, ptr %96, i32 1
  store ptr %97, ptr %10, align 8, !tbaa !19
  %98 = load i8, ptr %96, align 1, !tbaa !53
  %99 = load ptr, ptr %8, align 8, !tbaa !147
  %100 = getelementptr inbounds nuw %struct.LineNumberProgramHeader, ptr %99, i32 0, i32 4
  store i8 %98, ptr %100, align 8, !tbaa !152
  %101 = load ptr, ptr %8, align 8, !tbaa !147
  %102 = getelementptr inbounds nuw %struct.LineNumberProgramHeader, ptr %101, i32 0, i32 1
  %103 = load i16, ptr %102, align 8, !tbaa !133
  %104 = zext i16 %103 to i32
  %105 = icmp sge i32 %104, 4
  br i1 %105, label %106, label %115

106:                                              ; preds = %78
  %107 = load ptr, ptr %10, align 8, !tbaa !19
  %108 = load i8, ptr %107, align 1, !tbaa !53
  %109 = sext i8 %108 to i32
  %110 = icmp ne i32 %109, 1
  br i1 %110, label %111, label %112

111:                                              ; preds = %106
  store i32 -1, ptr %5, align 4
  store i32 1, ptr %11, align 4
  br label %205

112:                                              ; preds = %106
  %113 = load ptr, ptr %10, align 8, !tbaa !19
  %114 = getelementptr i8, ptr %113, i32 1
  store ptr %114, ptr %10, align 8, !tbaa !19
  br label %115

115:                                              ; preds = %112, %78
  %116 = load ptr, ptr %10, align 8, !tbaa !19
  %117 = getelementptr i8, ptr %116, i32 1
  store ptr %117, ptr %10, align 8, !tbaa !19
  %118 = load i8, ptr %116, align 1, !tbaa !53
  %119 = load ptr, ptr %8, align 8, !tbaa !147
  %120 = getelementptr inbounds nuw %struct.LineNumberProgramHeader, ptr %119, i32 0, i32 6
  store i8 %118, ptr %120, align 2, !tbaa !153
  %121 = load ptr, ptr %10, align 8, !tbaa !19
  %122 = getelementptr i8, ptr %121, i32 1
  store ptr %122, ptr %10, align 8, !tbaa !19
  %123 = load i8, ptr %121, align 1, !tbaa !53
  %124 = load ptr, ptr %8, align 8, !tbaa !147
  %125 = getelementptr inbounds nuw %struct.LineNumberProgramHeader, ptr %124, i32 0, i32 7
  store i8 %123, ptr %125, align 1, !tbaa !154
  %126 = load ptr, ptr %10, align 8, !tbaa !19
  %127 = getelementptr i8, ptr %126, i32 1
  store ptr %127, ptr %10, align 8, !tbaa !19
  %128 = load i8, ptr %126, align 1, !tbaa !53
  %129 = load ptr, ptr %8, align 8, !tbaa !147
  %130 = getelementptr inbounds nuw %struct.LineNumberProgramHeader, ptr %129, i32 0, i32 8
  store i8 %128, ptr %130, align 4, !tbaa !155
  %131 = load ptr, ptr %10, align 8, !tbaa !19
  %132 = getelementptr i8, ptr %131, i32 1
  store ptr %132, ptr %10, align 8, !tbaa !19
  %133 = load i8, ptr %131, align 1, !tbaa !53
  %134 = load ptr, ptr %8, align 8, !tbaa !147
  %135 = getelementptr inbounds nuw %struct.LineNumberProgramHeader, ptr %134, i32 0, i32 9
  store i8 %133, ptr %135, align 1, !tbaa !156
  %136 = load ptr, ptr %8, align 8, !tbaa !147
  %137 = getelementptr inbounds nuw %struct.LineNumberProgramHeader, ptr %136, i32 0, i32 9
  %138 = load i8, ptr %137, align 1, !tbaa !156
  %139 = zext i8 %138 to i32
  %140 = sub i32 %139, 1
  %141 = load ptr, ptr %10, align 8, !tbaa !19
  %142 = sext i32 %140 to i64
  %143 = getelementptr i8, ptr %141, i64 %142
  store ptr %143, ptr %10, align 8, !tbaa !19
  %144 = load ptr, ptr %8, align 8, !tbaa !147
  %145 = getelementptr inbounds nuw %struct.LineNumberProgramHeader, ptr %144, i32 0, i32 1
  %146 = load i16, ptr %145, align 8, !tbaa !133
  %147 = zext i16 %146 to i32
  %148 = icmp sge i32 %147, 5
  br i1 %148, label %149, label %163

149:                                              ; preds = %115
  %150 = load ptr, ptr %10, align 8, !tbaa !19
  %151 = load ptr, ptr %8, align 8, !tbaa !147
  %152 = getelementptr inbounds nuw %struct.LineNumberProgramHeader, ptr %151, i32 0, i32 10
  store ptr %150, ptr %152, align 8, !tbaa !134
  %153 = load ptr, ptr %10, align 8, !tbaa !19
  %154 = load ptr, ptr %8, align 8, !tbaa !147
  %155 = getelementptr inbounds nuw %struct.LineNumberProgramHeader, ptr %154, i32 0, i32 2
  %156 = load i8, ptr %155, align 2, !tbaa !132
  %157 = load ptr, ptr %6, align 8, !tbaa !17
  %158 = load ptr, ptr %9, align 8, !tbaa !13
  %159 = call ptr @parse_ver5_debug_line_header(ptr noundef %153, i32 noundef -1, i8 noundef zeroext %156, ptr noundef %157, ptr noundef null, ptr noundef null, ptr noundef %158)
  store ptr %159, ptr %10, align 8, !tbaa !19
  %160 = load ptr, ptr %10, align 8, !tbaa !19
  %161 = load ptr, ptr %8, align 8, !tbaa !147
  %162 = getelementptr inbounds nuw %struct.LineNumberProgramHeader, ptr %161, i32 0, i32 11
  store ptr %160, ptr %162, align 8, !tbaa !135
  br label %200

163:                                              ; preds = %115
  %164 = load ptr, ptr %10, align 8, !tbaa !19
  %165 = load ptr, ptr %8, align 8, !tbaa !147
  %166 = getelementptr inbounds nuw %struct.LineNumberProgramHeader, ptr %165, i32 0, i32 10
  store ptr %164, ptr %166, align 8, !tbaa !134
  %167 = load ptr, ptr %10, align 8, !tbaa !19
  %168 = load ptr, ptr %8, align 8, !tbaa !147
  %169 = getelementptr inbounds nuw %struct.LineNumberProgramHeader, ptr %168, i32 0, i32 13
  %170 = load ptr, ptr %169, align 8, !tbaa !130
  %171 = icmp uge ptr %167, %170
  br i1 %171, label %172, label %173

172:                                              ; preds = %163
  store i32 -1, ptr %5, align 4
  store i32 1, ptr %11, align 4
  br label %205

173:                                              ; preds = %163
  br label %174

174:                                              ; preds = %191, %173
  %175 = load ptr, ptr %10, align 8, !tbaa !19
  %176 = load i8, ptr %175, align 1, !tbaa !53
  %177 = icmp ne i8 %176, 0
  br i1 %177, label %178, label %194

178:                                              ; preds = %174
  %179 = load ptr, ptr %10, align 8, !tbaa !19
  %180 = load ptr, ptr %8, align 8, !tbaa !147
  %181 = getelementptr inbounds nuw %struct.LineNumberProgramHeader, ptr %180, i32 0, i32 13
  %182 = load ptr, ptr %181, align 8, !tbaa !130
  %183 = load ptr, ptr %10, align 8, !tbaa !19
  %184 = ptrtoint ptr %182 to i64
  %185 = ptrtoint ptr %183 to i64
  %186 = sub i64 %184, %185
  %187 = call ptr @memchr(ptr noundef %179, i32 noundef 0, i64 noundef %186) #14
  store ptr %187, ptr %10, align 8, !tbaa !19
  %188 = load ptr, ptr %10, align 8, !tbaa !19
  %189 = icmp ne ptr %188, null
  br i1 %189, label %191, label %190

190:                                              ; preds = %178
  store i32 -1, ptr %5, align 4
  store i32 1, ptr %11, align 4
  br label %205

191:                                              ; preds = %178
  %192 = load ptr, ptr %10, align 8, !tbaa !19
  %193 = getelementptr i8, ptr %192, i32 1
  store ptr %193, ptr %10, align 8, !tbaa !19
  br label %174, !llvm.loop !157

194:                                              ; preds = %174
  %195 = load ptr, ptr %10, align 8, !tbaa !19
  %196 = getelementptr i8, ptr %195, i32 1
  store ptr %196, ptr %10, align 8, !tbaa !19
  %197 = load ptr, ptr %10, align 8, !tbaa !19
  %198 = load ptr, ptr %8, align 8, !tbaa !147
  %199 = getelementptr inbounds nuw %struct.LineNumberProgramHeader, ptr %198, i32 0, i32 11
  store ptr %197, ptr %199, align 8, !tbaa !135
  br label %200

200:                                              ; preds = %194, %149
  %201 = load ptr, ptr %8, align 8, !tbaa !147
  %202 = getelementptr inbounds nuw %struct.LineNumberProgramHeader, ptr %201, i32 0, i32 12
  %203 = load ptr, ptr %202, align 8, !tbaa !151
  %204 = load ptr, ptr %7, align 8, !tbaa !91
  store ptr %203, ptr %204, align 8, !tbaa !19
  store i32 0, ptr %5, align 4
  store i32 1, ptr %11, align 4
  br label %205

205:                                              ; preds = %200, %190, %172, %111, %55
  call void @llvm.lifetime.end.p0(i64 8, ptr %10) #12
  %206 = load i32, ptr %5, align 4
  ret i32 %206
}