; Function Attrs: nounwind sspstrong uwtable
define internal fastcc range(i32 -1, 1) i32 @parse_debug_line_header(ptr noundef %0, ptr noundef nonnull captures(none) %1, ptr noundef nonnull captures(none) initializes((0, 11), (56, 64)) %2, ptr noundef %3) unnamed_addr #0 {
  %5 = load ptr, ptr %1, align 8, !tbaa !62
  %6 = load i32, ptr %5, align 4, !tbaa !51
  %7 = zext i32 %6 to i64
  store i64 %7, ptr %2, align 8, !tbaa !142
  %8 = getelementptr i8, ptr %5, i64 4
  %9 = getelementptr inbounds nuw i8, ptr %2, i64 10
  store i8 4, ptr %9, align 2, !tbaa !96
  %.not77 = icmp eq i32 %6, -1
  br i1 %.not77, label %10, label %.thread

10:                                               ; preds = %4
  %11 = load i64, ptr %8, align 8, !tbaa !68
  store i64 %11, ptr %2, align 8, !tbaa !142
  %12 = getelementptr i8, ptr %5, i64 12
  store i8 8, ptr %9, align 2, !tbaa !96
  %13 = getelementptr i8, ptr %12, i64 %11
  %14 = getelementptr inbounds nuw i8, ptr %2, i64 56
  store ptr %13, ptr %14, align 8, !tbaa !94
  %15 = load i16, ptr %12, align 2, !tbaa !134
  %16 = getelementptr inbounds nuw i8, ptr %2, i64 8
  store i16 %15, ptr %16, align 8, !tbaa !98
  %17 = icmp ugt i16 %15, 5
  br i1 %17, label %.loopexit, label %27

.thread:                                          ; preds = %4
  %18 = getelementptr i8, ptr %8, i64 %7
  %19 = getelementptr inbounds nuw i8, ptr %2, i64 56
  store ptr %18, ptr %19, align 8, !tbaa !94
  %20 = load i16, ptr %8, align 2, !tbaa !134
  %21 = getelementptr inbounds nuw i8, ptr %2, i64 8
  store i16 %20, ptr %21, align 8, !tbaa !98
  %22 = icmp ugt i16 %20, 5
  br i1 %22, label %.loopexit, label %23

23:                                               ; preds = %.thread
  %24 = icmp eq i16 %20, 5
  %spec.select.v82 = select i1 %24, i64 4, i64 2
  %spec.select83 = getelementptr i8, ptr %8, i64 %spec.select.v82
  %25 = load i32, ptr %spec.select83, align 4, !tbaa !51
  %26 = zext i32 %25 to i64
  br label %30

27:                                               ; preds = %10
  %28 = icmp eq i16 %15, 5
  %spec.select.v = select i1 %28, i64 4, i64 2
  %spec.select = getelementptr i8, ptr %12, i64 %spec.select.v
  %29 = load i64, ptr %spec.select, align 8, !tbaa !68
  br label %30

30:                                               ; preds = %27, %23
  %spec.select85 = phi ptr [ %spec.select83, %23 ], [ %spec.select, %27 ]
  %31 = phi i1 [ %24, %23 ], [ %28, %27 ]
  %32 = phi i8 [ 4, %23 ], [ 8, %27 ]
  %33 = phi ptr [ %18, %23 ], [ %13, %27 ]
  %34 = phi i16 [ %20, %23 ], [ %15, %27 ]
  %35 = phi i64 [ %26, %23 ], [ %29, %27 ]
  %36 = getelementptr inbounds nuw i8, ptr %2, i64 16
  store i64 %35, ptr %36, align 8, !tbaa !143
  %37 = zext nneg i8 %32 to i64
  %38 = getelementptr i8, ptr %spec.select85, i64 %37
  %39 = getelementptr i8, ptr %38, i64 %35
  %40 = getelementptr inbounds nuw i8, ptr %2, i64 48
  store ptr %39, ptr %40, align 8, !tbaa !144
  %41 = getelementptr i8, ptr %38, i64 1
  %42 = load i8, ptr %38, align 1, !tbaa !12
  %43 = getelementptr inbounds nuw i8, ptr %2, i64 24
  store i8 %42, ptr %43, align 8, !tbaa !145
  %44 = icmp samesign ugt i16 %34, 3
  br i1 %44, label %45, label %49

45:                                               ; preds = %30
  %46 = load i8, ptr %41, align 1, !tbaa !12
  %.not = icmp eq i8 %46, 1
  br i1 %.not, label %47, label %.loopexit

47:                                               ; preds = %45
  %48 = getelementptr i8, ptr %38, i64 2
  br label %49

49:                                               ; preds = %47, %30
  %.2 = phi ptr [ %48, %47 ], [ %41, %30 ]
  %50 = getelementptr i8, ptr %.2, i64 1
  %51 = load i8, ptr %.2, align 1, !tbaa !12
  %52 = getelementptr inbounds nuw i8, ptr %2, i64 26
  store i8 %51, ptr %52, align 2, !tbaa !146
  %53 = getelementptr i8, ptr %.2, i64 2
  %54 = load i8, ptr %50, align 1, !tbaa !12
  %55 = getelementptr inbounds nuw i8, ptr %2, i64 27
  store i8 %54, ptr %55, align 1, !tbaa !147
  %56 = getelementptr i8, ptr %.2, i64 3
  %57 = load i8, ptr %53, align 1, !tbaa !12
  %58 = getelementptr inbounds nuw i8, ptr %2, i64 28
  store i8 %57, ptr %58, align 4, !tbaa !148
  %59 = load i8, ptr %56, align 1, !tbaa !12
  %60 = getelementptr inbounds nuw i8, ptr %2, i64 29
  store i8 %59, ptr %60, align 1, !tbaa !149
  %61 = zext i8 %59 to i64
  %62 = getelementptr i8, ptr %56, i64 %61
  %63 = getelementptr inbounds nuw i8, ptr %2, i64 32
  store ptr %62, ptr %63, align 8, !tbaa !100
  br i1 %31, label %64, label %67

64:                                               ; preds = %49
  %65 = tail call fastcc ptr @parse_ver5_debug_line_header(ptr noundef %62, i32 noundef -1, i8 noundef zeroext %32, ptr noundef %0, ptr noundef null, ptr noundef null, ptr noundef %3)
  %66 = getelementptr inbounds nuw i8, ptr %2, i64 40
  store ptr %65, ptr %66, align 8, !tbaa !102
  %.pre = load ptr, ptr %40, align 8, !tbaa !144
  br label %79

67:                                               ; preds = %49
  %.not71 = icmp ult ptr %62, %33
  br i1 %.not71, label %.preheader, label %.loopexit

.preheader:                                       ; preds = %67
  %68 = load i8, ptr %62, align 1, !tbaa !12
  %.not7275 = icmp eq i8 %68, 0
  br i1 %.not7275, label %._crit_edge, label %.lr.ph

.lr.ph:                                           ; preds = %.preheader
  %69 = ptrtoint ptr %33 to i64
  br label %73

70:                                               ; preds = %73
  %71 = getelementptr i8, ptr %76, i64 1
  %72 = load i8, ptr %71, align 1, !tbaa !12
  %.not72 = icmp eq i8 %72, 0
  br i1 %.not72, label %._crit_edge, label %73, !llvm.loop !150

73:                                               ; preds = %.lr.ph, %70
  %.376 = phi ptr [ %62, %.lr.ph ], [ %71, %70 ]
  %74 = ptrtoint ptr %.376 to i64
  %75 = sub i64 %69, %74
  %76 = tail call ptr @memchr(ptr noundef nonnull %.376, i32 noundef 0, i64 noundef %75) #17
  %.not73 = icmp eq ptr %76, null
  br i1 %.not73, label %.loopexit, label %70

._crit_edge:                                      ; preds = %70, %.preheader
  %.3.lcssa = phi ptr [ %62, %.preheader ], [ %71, %70 ]
  %77 = getelementptr i8, ptr %.3.lcssa, i64 1
  %78 = getelementptr inbounds nuw i8, ptr %2, i64 40
  store ptr %77, ptr %78, align 8, !tbaa !102
  br label %79

79:                                               ; preds = %._crit_edge, %64
  %80 = phi ptr [ %39, %._crit_edge ], [ %.pre, %64 ]
  store ptr %80, ptr %1, align 8, !tbaa !62
  br label %.loopexit

.loopexit:                                        ; preds = %73, %.thread, %67, %45, %10, %79
  %.067 = phi i32 [ 0, %79 ], [ -1, %10 ], [ -1, %45 ], [ -1, %67 ], [ -1, %.thread ], [ -1, %73 ]
  ret i32 %.067
}